; Function Attrs: nounwind uwtable
define internal fastcc noundef ptr @Mio_LibraryReadOne(ptr noundef %0, i32 noundef range(i32 0, 2) %1, ptr noundef %2, i32 noundef %3, i32 noundef %4) unnamed_addr #0 {
  %6 = tail call ptr @Io_FileOpen(ptr noundef %0, ptr noundef nonnull @.str.3, ptr noundef nonnull @.str.4, i32 noundef 1) #17
  %7 = tail call i32 @fseek(ptr noundef %6, i64 noundef 0, i32 noundef 2)
  %8 = tail call i64 @ftell(ptr noundef %6)
  tail call void @rewind(ptr noundef %6)
  %9 = shl i64 %8, 32
  %sext.i = add i64 %9, 42949672960
  %10 = ashr exact i64 %sext.i, 32
  %11 = tail call noalias ptr @malloc(i64 noundef %10) #19
  %12 = ashr exact i64 %9, 32
  %13 = tail call i64 @fread(ptr noundef %11, i64 noundef %12, i64 noundef 1, ptr noundef %6)
  %14 = getelementptr inbounds i8, ptr %11, i64 %12
  store i8 0, ptr %14, align 1, !tbaa !25
  %strlen.i = tail call i64 @strlen(ptr nonnull dereferenceable(1) %11)
  %endptr.i = getelementptr inbounds i8, ptr %11, i64 %strlen.i
  tail call void @llvm.memcpy.p0.p0.i64(ptr noundef nonnull align 1 dereferenceable(7) %endptr.i, ptr noundef nonnull align 1 dereferenceable(7) @.str.5, i64 7, i1 false)
  %15 = tail call i32 @fclose(ptr noundef %6)
  %16 = tail call ptr @Mio_LibraryReadBuffer(ptr noundef nonnull %11, i32 noundef %1, ptr noundef %2, i32 noundef %3, i32 poison)
  tail call void @free(ptr noundef %11) #17
  %.not = icmp eq ptr %16, null
  br i1 %.not, label %24, label %17

17:                                               ; preds = %5
  %.not.i = icmp eq ptr %0, null
  br i1 %.not.i, label %Abc_UtilStrsav.exit, label %18

18:                                               ; preds = %17
  %19 = tail call i64 @strlen(ptr noundef nonnull readonly dereferenceable(1) %0) #18
  %20 = add i64 %19, 1
  %21 = tail call noalias ptr @malloc(i64 noundef %20) #19
  %22 = tail call ptr @strcpy(ptr noundef nonnull dereferenceable(1) %21, ptr noundef nonnull readonly dereferenceable(1) %0) #17
  br label %Abc_UtilStrsav.exit

Abc_UtilStrsav.exit:                              ; preds = %17, %18
  %23 = phi ptr [ %21, %18 ], [ null, %17 ]
  store ptr %23, ptr %16, align 8, !tbaa !8
  br label %24

24:                                               ; preds = %5, %Abc_UtilStrsav.exit
  ret ptr %16
}